ccopy_reg
_reconstructor
p0
(cgoogle.oauth2.credentials
Credentials
p1
c__builtin__
object
p2
Ntp3
Rp4
(dp5
S'_token_uri'
p6
Vhttps://oauth2.googleapis.com/token
p7
sS'_scopes'
p8
(lp9
S'https://www.googleapis.com/auth/calendar.readonly'
p10
asS'_id_token'
p11
NsS'token'
p12
Vya29.GlwEB0pq9wbWzC3qQphoD8cQq6Cpg4f29_1BaQJ4pr7uxvzjCZRSWF5TJIMzkY6_XQgd8PtUlVVrRIpP5Me_TJeMHdp_4P47r24Z0mH5i3Ieu8FwG5LkVDi_FDO0mg
p13
sS'_refresh_token'
p14
V1/SCp2a51_8kpfC7qfeHFSQjRZeeFYqpL2OccchCPK0uA
p15
sS'_client_secret'
p16
VgA6HP2uSC3NOgYtg11f67act
p17
sS'_client_id'
p18
V405474684813-cjtvemq64nhpejrcurjq8snvbv0ccqqs.apps.googleusercontent.com
p19
sS'expiry'
p20
cdatetime
datetime
p21
(S'\x07\xe3\x05\t\x0b\x08\t\x01%\xef'
p22
tp23
Rp24
sb.